target datalayout = "e-m:e-p270:32:32-p271:32:32-p272:64:64-i64:64-i128:128-f80:128-n8:16:32:64-S128"
target triple = "x86_64-pc-linux-gnu"

%class.Template = type <{ i32, i32, i32, [4 x i8], ptr, i32, [4 x i8] }>

; Function Attrs: mustprogress nounwind uwtable
define hidden void @_ZN8Template10initializeEi8TosStateS0_PFviEi(ptr noundef nonnull align 8 dereferenceable(28) %0, i32 noundef %1, i32 noundef %2, i32 noundef %3, ptr noundef %4, i32 noundef %5) #1 align 2 {
  %7 = alloca ptr, align 8
  %8 = alloca i32, align 4
  %9 = alloca i32, align 4
  %10 = alloca i32, align 4
  %11 = alloca ptr, align 8
  %12 = alloca i32, align 4
  store ptr %0, ptr %7, align 8
  store i32 %1, ptr %8, align 4
  store i32 %2, ptr %9, align 4
  store i32 %3, ptr %10, align 4
  store ptr %4, ptr %11, align 8
  store i32 %5, ptr %12, align 4
  %13 = load ptr, ptr %7, align 8
  %14 = load i32, ptr %8, align 4
  %15 = getelementptr inbounds %class.Template, ptr %13, i32 0, i32 0
  store i32 %14, ptr %15, align 8
  %16 = load i32, ptr %9, align 4
  %17 = getelementptr inbounds %class.Template, ptr %13, i32 0, i32 1
  store i32 %16, ptr %17, align 4
  %18 = load i32, ptr %10, align 4
  %19 = getelementptr inbounds %class.Template, ptr %13, i32 0, i32 2
  store i32 %18, ptr %19, align 8
  %20 = load ptr, ptr %11, align 8
  %21 = getelementptr inbounds %class.Template, ptr %13, i32 0, i32 4
  store ptr %20, ptr %21, align 8
  %22 = load i32, ptr %12, align 4
  %23 = getelementptr inbounds %class.Template, ptr %13, i32 0, i32 5
  store i32 %22, ptr %23, align 8
  ret void
}