; Function Attrs: mustprogress nofree norecurse nosync nounwind willreturn memory(argmem: write) uwtable
define hidden void @_ZN8Template10initializeEi8TosStateS0_PFviEi(ptr nocapture noundef nonnull writeonly align 8 dereferenceable(28) %0, i32 noundef %1, i32 noundef %2, i32 noundef %3, ptr noundef %4, i32 noundef %5) local_unnamed_addr #0 align 2 {
  store i32 %1, ptr %0, align 8
  %7 = getelementptr inbounds i8, ptr %0, i64 4
  store i32 %2, ptr %7, align 4
  %8 = getelementptr inbounds i8, ptr %0, i64 8
  store i32 %3, ptr %8, align 8
  %9 = getelementptr inbounds i8, ptr %0, i64 16
  store ptr %4, ptr %9, align 8
  %10 = getelementptr inbounds i8, ptr %0, i64 24
  store i32 %5, ptr %10, align 8
  ret void
}